target datalayout = "e-m:e-p270:32:32-p271:32:32-p272:64:64-i64:64-i128:128-f80:128-n8:16:32:64-S128"
target triple = "x86_64-pc-linux-gnu"

%struct.ggml_tensor = type { i32, ptr, [4 x i64], [4 x i64], i32, [16 x i32], i32, [10 x ptr], ptr, i64, ptr, [64 x i8], ptr, [8 x i8] }

@.str.12 = private unnamed_addr constant [113 x i8] c"generated/home/dtcxzyw/WorkSpace/Projects/compilers/llvm-opt-benchmark/bench/llama.cpp/llama.cpp/ggml/src/ggml.c\00", align 1
@.str.13 = private unnamed_addr constant [23 x i8] c"GGML_ASSERT(%s) failed\00", align 1
@.str.34 = private unnamed_addr constant [24 x i8] c"!ggml_is_transposed(as)\00", align 1
@.str.35 = private unnamed_addr constant [27 x i8] c"ids->type == GGML_TYPE_I32\00", align 1
@.str.36 = private unnamed_addr constant [15 x i8] c"as->ne[3] == 1\00", align 1
@.str.37 = private unnamed_addr constant [14 x i8] c"b->ne[3] == 1\00", align 1
@.str.38 = private unnamed_addr constant [35 x i8] c"ids->ne[2] == 1 && ids->ne[3] == 1\00", align 1
@.str.39 = private unnamed_addr constant [23 x i8] c"ids->ne[1] == b->ne[2]\00", align 1
@.str.40 = private unnamed_addr constant [22 x i8] c"as->ne[0] == b->ne[0]\00", align 1
@.str.41 = private unnamed_addr constant [27 x i8] c"ids->ne[0] % b->ne[1] == 0\00", align 1

; Function Attrs: nounwind uwtable
define ptr @ggml_new_tensor(ptr noundef %0, i32 noundef %1, i32 noundef %2, ptr noundef %3) #5 {
  %5 = alloca ptr, align 8
  %6 = alloca i32, align 4
  %7 = alloca i32, align 4
  %8 = alloca ptr, align 8
  store ptr %0, ptr %5, align 8, !tbaa !48
  store i32 %1, ptr %6, align 4, !tbaa !8
  store i32 %2, ptr %7, align 4, !tbaa !8
  store ptr %3, ptr %8, align 8, !tbaa !88
  %9 = load ptr, ptr %5, align 8, !tbaa !48
  %10 = load i32, ptr %6, align 4, !tbaa !8
  %11 = load i32, ptr %7, align 4, !tbaa !8
  %12 = load ptr, ptr %8, align 8, !tbaa !88
  %13 = call ptr @ggml_new_tensor_impl(ptr noundef %9, i32 noundef %10, i32 noundef %11, ptr noundef %12, ptr noundef null, i64 noundef 0)
  ret ptr %13
}

; Function Attrs: nounwind uwtable
define zeroext i1 @ggml_is_transposed(ptr noundef %0) #5 {
  %2 = alloca ptr, align 8
  store ptr %0, ptr %2, align 8, !tbaa !54
  %3 = load ptr, ptr %2, align 8, !tbaa !54
  %4 = getelementptr inbounds nuw %struct.ggml_tensor, ptr %3, i32 0, i32 3
  %5 = getelementptr inbounds [4 x i64], ptr %4, i64 0, i64 0
  %6 = load i64, ptr %5, align 8, !tbaa !19
  %7 = load ptr, ptr %2, align 8, !tbaa !54
  %8 = getelementptr inbounds nuw %struct.ggml_tensor, ptr %7, i32 0, i32 3
  %9 = getelementptr inbounds [4 x i64], ptr %8, i64 0, i64 1
  %10 = load i64, ptr %9, align 8, !tbaa !19
  %11 = icmp ugt i64 %6, %10
  ret i1 %11
}

; Function Attrs: nounwind uwtable
define ptr @ggml_mul_mat_id(ptr noundef %0, ptr noundef %1, ptr noundef %2, ptr noundef %3) #5 {
  %5 = alloca ptr, align 8
  %6 = alloca ptr, align 8
  %7 = alloca ptr, align 8
  %8 = alloca ptr, align 8
  %9 = alloca [4 x i64], align 16
  %10 = alloca ptr, align 8
  store ptr %0, ptr %5, align 8, !tbaa !48
  store ptr %1, ptr %6, align 8, !tbaa !54
  store ptr %2, ptr %7, align 8, !tbaa !54
  store ptr %3, ptr %8, align 8, !tbaa !54
  %11 = load ptr, ptr %6, align 8, !tbaa !54
  %12 = call zeroext i1 @ggml_is_transposed(ptr noundef %11)
  br i1 %12, label %13, label %14

13:                                               ; preds = %4
  call void (ptr, i32, ptr, ...) @ggml_abort(ptr noundef @.str.12, i32 noundef 2744, ptr noundef @.str.13, ptr noundef @.str.34) #18
  unreachable

14:                                               ; preds = %4
  %15 = load ptr, ptr %8, align 8, !tbaa !54
  %16 = getelementptr inbounds nuw %struct.ggml_tensor, ptr %15, i32 0, i32 0
  %17 = load i32, ptr %16, align 8, !tbaa !56
  %18 = icmp eq i32 %17, 26
  br i1 %18, label %20, label %19

19:                                               ; preds = %14
  call void (ptr, i32, ptr, ...) @ggml_abort(ptr noundef @.str.12, i32 noundef 2745, ptr noundef @.str.13, ptr noundef @.str.35) #18
  unreachable

20:                                               ; preds = %14
  %21 = load ptr, ptr %6, align 8, !tbaa !54
  %22 = getelementptr inbounds nuw %struct.ggml_tensor, ptr %21, i32 0, i32 2
  %23 = getelementptr inbounds [4 x i64], ptr %22, i64 0, i64 3
  %24 = load i64, ptr %23, align 8, !tbaa !19
  %25 = icmp eq i64 %24, 1
  br i1 %25, label %27, label %26

26:                                               ; preds = %20
  call void (ptr, i32, ptr, ...) @ggml_abort(ptr noundef @.str.12, i32 noundef 2747, ptr noundef @.str.13, ptr noundef @.str.36) #18
  unreachable

27:                                               ; preds = %20
  %28 = load ptr, ptr %7, align 8, !tbaa !54
  %29 = getelementptr inbounds nuw %struct.ggml_tensor, ptr %28, i32 0, i32 2
  %30 = getelementptr inbounds [4 x i64], ptr %29, i64 0, i64 3
  %31 = load i64, ptr %30, align 8, !tbaa !19
  %32 = icmp eq i64 %31, 1
  br i1 %32, label %34, label %33

33:                                               ; preds = %27
  call void (ptr, i32, ptr, ...) @ggml_abort(ptr noundef @.str.12, i32 noundef 2748, ptr noundef @.str.13, ptr noundef @.str.37) #18
  unreachable

34:                                               ; preds = %27
  %35 = load ptr, ptr %8, align 8, !tbaa !54
  %36 = getelementptr inbounds nuw %struct.ggml_tensor, ptr %35, i32 0, i32 2
  %37 = getelementptr inbounds [4 x i64], ptr %36, i64 0, i64 2
  %38 = load i64, ptr %37, align 8, !tbaa !19
  %39 = icmp eq i64 %38, 1
  br i1 %39, label %40, label %46

40:                                               ; preds = %34
  %41 = load ptr, ptr %8, align 8, !tbaa !54
  %42 = getelementptr inbounds nuw %struct.ggml_tensor, ptr %41, i32 0, i32 2
  %43 = getelementptr inbounds [4 x i64], ptr %42, i64 0, i64 3
  %44 = load i64, ptr %43, align 8, !tbaa !19
  %45 = icmp eq i64 %44, 1
  br i1 %45, label %47, label %46

46:                                               ; preds = %40, %34
  call void (ptr, i32, ptr, ...) @ggml_abort(ptr noundef @.str.12, i32 noundef 2749, ptr noundef @.str.13, ptr noundef @.str.38) #18
  unreachable

47:                                               ; preds = %40
  %48 = load ptr, ptr %8, align 8, !tbaa !54
  %49 = getelementptr inbounds nuw %struct.ggml_tensor, ptr %48, i32 0, i32 2
  %50 = getelementptr inbounds [4 x i64], ptr %49, i64 0, i64 1
  %51 = load i64, ptr %50, align 8, !tbaa !19
  %52 = load ptr, ptr %7, align 8, !tbaa !54
  %53 = getelementptr inbounds nuw %struct.ggml_tensor, ptr %52, i32 0, i32 2
  %54 = getelementptr inbounds [4 x i64], ptr %53, i64 0, i64 2
  %55 = load i64, ptr %54, align 8, !tbaa !19
  %56 = icmp eq i64 %51, %55
  br i1 %56, label %58, label %57

57:                                               ; preds = %47
  call void (ptr, i32, ptr, ...) @ggml_abort(ptr noundef @.str.12, i32 noundef 2750, ptr noundef @.str.13, ptr noundef @.str.39) #18
  unreachable

58:                                               ; preds = %47
  %59 = load ptr, ptr %6, align 8, !tbaa !54
  %60 = getelementptr inbounds nuw %struct.ggml_tensor, ptr %59, i32 0, i32 2
  %61 = getelementptr inbounds [4 x i64], ptr %60, i64 0, i64 0
  %62 = load i64, ptr %61, align 8, !tbaa !19
  %63 = load ptr, ptr %7, align 8, !tbaa !54
  %64 = getelementptr inbounds nuw %struct.ggml_tensor, ptr %63, i32 0, i32 2
  %65 = getelementptr inbounds [4 x i64], ptr %64, i64 0, i64 0
  %66 = load i64, ptr %65, align 8, !tbaa !19
  %67 = icmp eq i64 %62, %66
  br i1 %67, label %69, label %68

68:                                               ; preds = %58
  call void (ptr, i32, ptr, ...) @ggml_abort(ptr noundef @.str.12, i32 noundef 2751, ptr noundef @.str.13, ptr noundef @.str.40) #18
  unreachable

69:                                               ; preds = %58
  %70 = load ptr, ptr %8, align 8, !tbaa !54
  %71 = getelementptr inbounds nuw %struct.ggml_tensor, ptr %70, i32 0, i32 2
  %72 = getelementptr inbounds [4 x i64], ptr %71, i64 0, i64 0
  %73 = load i64, ptr %72, align 8, !tbaa !19
  %74 = load ptr, ptr %7, align 8, !tbaa !54
  %75 = getelementptr inbounds nuw %struct.ggml_tensor, ptr %74, i32 0, i32 2
  %76 = getelementptr inbounds [4 x i64], ptr %75, i64 0, i64 1
  %77 = load i64, ptr %76, align 8, !tbaa !19
  %78 = srem i64 %73, %77
  %79 = icmp eq i64 %78, 0
  br i1 %79, label %81, label %80

80:                                               ; preds = %69
  call void (ptr, i32, ptr, ...) @ggml_abort(ptr noundef @.str.12, i32 noundef 2752, ptr noundef @.str.13, ptr noundef @.str.41) #18
  unreachable

81:                                               ; preds = %69
  call void @llvm.lifetime.start.p0(i64 32, ptr %9) #14
  %82 = load ptr, ptr %6, align 8, !tbaa !54
  %83 = getelementptr inbounds nuw %struct.ggml_tensor, ptr %82, i32 0, i32 2
  %84 = getelementptr inbounds [4 x i64], ptr %83, i64 0, i64 1
  %85 = load i64, ptr %84, align 8, !tbaa !19
  store i64 %85, ptr %9, align 8, !tbaa !19
  %86 = getelementptr inbounds i64, ptr %9, i64 1
  %87 = load ptr, ptr %8, align 8, !tbaa !54
  %88 = getelementptr inbounds nuw %struct.ggml_tensor, ptr %87, i32 0, i32 2
  %89 = getelementptr inbounds [4 x i64], ptr %88, i64 0, i64 0
  %90 = load i64, ptr %89, align 8, !tbaa !19
  store i64 %90, ptr %86, align 8, !tbaa !19
  %91 = getelementptr inbounds i64, ptr %9, i64 2
  %92 = load ptr, ptr %7, align 8, !tbaa !54
  %93 = getelementptr inbounds nuw %struct.ggml_tensor, ptr %92, i32 0, i32 2
  %94 = getelementptr inbounds [4 x i64], ptr %93, i64 0, i64 2
  %95 = load i64, ptr %94, align 8, !tbaa !19
  store i64 %95, ptr %91, align 8, !tbaa !19
  %96 = getelementptr inbounds i64, ptr %9, i64 3
  store i64 1, ptr %96, align 8, !tbaa !19
  call void @llvm.lifetime.start.p0(i64 8, ptr %10) #14
  %97 = load ptr, ptr %5, align 8, !tbaa !48
  %98 = getelementptr inbounds [4 x i64], ptr %9, i64 0, i64 0
  %99 = call ptr @ggml_new_tensor(ptr noundef %97, i32 noundef 0, i32 noundef 4, ptr noundef %98)
  store ptr %99, ptr %10, align 8, !tbaa !54
  %100 = load ptr, ptr %10, align 8, !tbaa !54
  %101 = getelementptr inbounds nuw %struct.ggml_tensor, ptr %100, i32 0, i32 4
  store i32 27, ptr %101, align 8, !tbaa !68
  %102 = load ptr, ptr %6, align 8, !tbaa !54
  %103 = load ptr, ptr %10, align 8, !tbaa !54
  %104 = getelementptr inbounds nuw %struct.ggml_tensor, ptr %103, i32 0, i32 7
  %105 = getelementptr inbounds [10 x ptr], ptr %104, i64 0, i64 0
  store ptr %102, ptr %105, align 8, !tbaa !54
  %106 = load ptr, ptr %7, align 8, !tbaa !54
  %107 = load ptr, ptr %10, align 8, !tbaa !54
  %108 = getelementptr inbounds nuw %struct.ggml_tensor, ptr %107, i32 0, i32 7
  %109 = getelementptr inbounds [10 x ptr], ptr %108, i64 0, i64 1
  store ptr %106, ptr %109, align 8, !tbaa !54
  %110 = load ptr, ptr %8, align 8, !tbaa !54
  %111 = load ptr, ptr %10, align 8, !tbaa !54
  %112 = getelementptr inbounds nuw %struct.ggml_tensor, ptr %111, i32 0, i32 7
  %113 = getelementptr inbounds [10 x ptr], ptr %112, i64 0, i64 2
  store ptr %110, ptr %113, align 8, !tbaa !54
  %114 = load ptr, ptr %10, align 8, !tbaa !54
  call void @llvm.lifetime.end.p0(i64 8, ptr %10) #14
  call void @llvm.lifetime.end.p0(i64 32, ptr %9) #14
  ret ptr %114
}