; Function Attrs: nounwind uwtable
define noundef ptr @ggml_mul_mat_id(ptr noundef captures(none) %0, ptr noundef %1, ptr noundef %2, ptr noundef %3) local_unnamed_addr #4 {
  %5 = alloca [4 x i64], align 16
  %6 = getelementptr inbounds nuw i8, ptr %1, i64 48
  %7 = load i64, ptr %6, align 8, !tbaa !39
  %8 = getelementptr inbounds nuw i8, ptr %1, i64 56
  %9 = load i64, ptr %8, align 8, !tbaa !39
  %10 = icmp ugt i64 %7, %9
  br i1 %10, label %11, label %12

11:                                               ; preds = %4
  tail call void (ptr, i32, ptr, ...) @ggml_abort(ptr noundef nonnull @.str.12, i32 noundef 2744, ptr noundef nonnull @.str.13, ptr noundef nonnull @.str.34) #47
  unreachable

12:                                               ; preds = %4
  %13 = load i32, ptr %3, align 8, !tbaa !40
  %14 = icmp eq i32 %13, 26
  br i1 %14, label %16, label %15

15:                                               ; preds = %12
  tail call void (ptr, i32, ptr, ...) @ggml_abort(ptr noundef nonnull @.str.12, i32 noundef 2745, ptr noundef nonnull @.str.13, ptr noundef nonnull @.str.35) #47
  unreachable

16:                                               ; preds = %12
  %17 = getelementptr inbounds nuw i8, ptr %1, i64 16
  %18 = getelementptr inbounds nuw i8, ptr %1, i64 40
  %19 = load i64, ptr %18, align 8, !tbaa !39
  %20 = icmp eq i64 %19, 1
  br i1 %20, label %22, label %21

21:                                               ; preds = %16
  tail call void (ptr, i32, ptr, ...) @ggml_abort(ptr noundef nonnull @.str.12, i32 noundef 2747, ptr noundef nonnull @.str.13, ptr noundef nonnull @.str.36) #47
  unreachable

22:                                               ; preds = %16
  %23 = getelementptr inbounds nuw i8, ptr %2, i64 16
  %24 = getelementptr inbounds nuw i8, ptr %2, i64 40
  %25 = load i64, ptr %24, align 8, !tbaa !39
  %26 = icmp eq i64 %25, 1
  br i1 %26, label %28, label %27

27:                                               ; preds = %22
  tail call void (ptr, i32, ptr, ...) @ggml_abort(ptr noundef nonnull @.str.12, i32 noundef 2748, ptr noundef nonnull @.str.13, ptr noundef nonnull @.str.37) #47
  unreachable

28:                                               ; preds = %22
  %29 = getelementptr inbounds nuw i8, ptr %3, i64 16
  %30 = getelementptr inbounds nuw i8, ptr %3, i64 32
  %31 = load i64, ptr %30, align 8, !tbaa !39
  %32 = icmp eq i64 %31, 1
  br i1 %32, label %33, label %37

33:                                               ; preds = %28
  %34 = getelementptr inbounds nuw i8, ptr %3, i64 40
  %35 = load i64, ptr %34, align 8, !tbaa !39
  %36 = icmp eq i64 %35, 1
  br i1 %36, label %38, label %37

37:                                               ; preds = %33, %28
  tail call void (ptr, i32, ptr, ...) @ggml_abort(ptr noundef nonnull @.str.12, i32 noundef 2749, ptr noundef nonnull @.str.13, ptr noundef nonnull @.str.38) #47
  unreachable

38:                                               ; preds = %33
  %39 = getelementptr inbounds nuw i8, ptr %3, i64 24
  %40 = load i64, ptr %39, align 8, !tbaa !39
  %41 = getelementptr inbounds nuw i8, ptr %2, i64 32
  %42 = load i64, ptr %41, align 8, !tbaa !39
  %43 = icmp eq i64 %40, %42
  br i1 %43, label %45, label %44

44:                                               ; preds = %38
  tail call void (ptr, i32, ptr, ...) @ggml_abort(ptr noundef nonnull @.str.12, i32 noundef 2750, ptr noundef nonnull @.str.13, ptr noundef nonnull @.str.39) #47
  unreachable

45:                                               ; preds = %38
  %46 = load i64, ptr %17, align 8, !tbaa !39
  %47 = load i64, ptr %23, align 8, !tbaa !39
  %48 = icmp eq i64 %46, %47
  br i1 %48, label %50, label %49

49:                                               ; preds = %45
  tail call void (ptr, i32, ptr, ...) @ggml_abort(ptr noundef nonnull @.str.12, i32 noundef 2751, ptr noundef nonnull @.str.13, ptr noundef nonnull @.str.40) #47
  unreachable

50:                                               ; preds = %45
  %51 = load i64, ptr %29, align 8, !tbaa !39
  %52 = getelementptr inbounds nuw i8, ptr %2, i64 24
  %53 = load i64, ptr %52, align 8, !tbaa !39
  %54 = srem i64 %51, %53
  %55 = icmp eq i64 %54, 0
  br i1 %55, label %57, label %56

56:                                               ; preds = %50
  tail call void (ptr, i32, ptr, ...) @ggml_abort(ptr noundef nonnull @.str.12, i32 noundef 2752, ptr noundef nonnull @.str.13, ptr noundef nonnull @.str.41) #47
  unreachable

57:                                               ; preds = %50
  call void @llvm.lifetime.start.p0(i64 32, ptr nonnull %5) #42
  %58 = getelementptr inbounds nuw i8, ptr %1, i64 24
  %59 = load i64, ptr %58, align 8, !tbaa !39
  store i64 %59, ptr %5, align 16, !tbaa !39
  %60 = getelementptr inbounds nuw i8, ptr %5, i64 8
  store i64 %51, ptr %60, align 8, !tbaa !39
  %61 = getelementptr inbounds nuw i8, ptr %5, i64 16
  store i64 %40, ptr %61, align 16, !tbaa !39
  %62 = getelementptr inbounds nuw i8, ptr %5, i64 24
  store i64 1, ptr %62, align 8, !tbaa !39
  %63 = call fastcc noundef ptr @ggml_new_tensor_impl(ptr noundef %0, i32 noundef 0, i32 noundef 4, ptr noundef nonnull readonly %5, ptr noundef null, i64 noundef 0)
  %64 = getelementptr inbounds nuw i8, ptr %63, i64 80
  store i32 27, ptr %64, align 8, !tbaa !55
  %65 = getelementptr inbounds nuw i8, ptr %63, i64 152
  store ptr %1, ptr %65, align 8, !tbaa !81
  %66 = getelementptr inbounds nuw i8, ptr %63, i64 160
  store ptr %2, ptr %66, align 8, !tbaa !81
  %67 = getelementptr inbounds nuw i8, ptr %63, i64 168
  store ptr %3, ptr %67, align 8, !tbaa !81
  call void @llvm.lifetime.end.p0(i64 32, ptr nonnull %5) #42
  ret ptr %63
}